target datalayout = "e-m:e-p270:32:32-p271:32:32-p272:64:64-i64:64-i128:128-f80:128-n8:16:32:64-S128"
target triple = "x86_64-pc-linux-gnu"

%struct.lzma_next_coder_s = type { ptr, i64, i64, ptr, ptr, ptr, ptr, ptr, ptr, ptr }
%struct.lzma_alone_coder = type { %struct.lzma_next_coder_s, i32, i8, i64, i64, i64, i64, %struct.lzma_options_lzma }
%struct.lzma_options_lzma = type { i32, ptr, i32, i32, i32, i32, i32, i32, i32, i32, i32, i32, i32, i32, i32, i32, i32, i32, i32, i32, i32, i32, ptr, ptr }
%struct.lzma_filter_info_s = type { i64, ptr, ptr }

; Function Attrs: nounwind uwtable
define internal i32 @alone_decode(ptr noundef %0, ptr noundef %1, ptr noalias noundef %2, ptr noalias noundef %3, i64 noundef %4, ptr noalias noundef %5, ptr noalias noundef %6, i64 noundef %7, i32 noundef %8) #0 {
  %10 = alloca i32, align 4
  %11 = alloca ptr, align 8
  %12 = alloca ptr, align 8
  %13 = alloca ptr, align 8
  %14 = alloca ptr, align 8
  %15 = alloca i64, align 8
  %16 = alloca ptr, align 8
  %17 = alloca ptr, align 8
  %18 = alloca i64, align 8
  %19 = alloca i32, align 4
  %20 = alloca ptr, align 8
  %21 = alloca i32, align 4
  %22 = alloca i32, align 4
  %23 = alloca [2 x %struct.lzma_filter_info_s], align 16
  %24 = alloca i32, align 4
  store ptr %0, ptr %11, align 8, !tbaa !9
  store ptr %1, ptr %12, align 8, !tbaa !9
  store ptr %2, ptr %13, align 8, !tbaa !37
  store ptr %3, ptr %14, align 8, !tbaa !38
  store i64 %4, ptr %15, align 8, !tbaa !10
  store ptr %5, ptr %16, align 8, !tbaa !37
  store ptr %6, ptr %17, align 8, !tbaa !38
  store i64 %7, ptr %18, align 8, !tbaa !10
  store i32 %8, ptr %19, align 4, !tbaa !40
  call void @llvm.lifetime.start.p0(i64 8, ptr %20) #6
  %25 = load ptr, ptr %11, align 8, !tbaa !9
  store ptr %25, ptr %20, align 8, !tbaa !9
  br label %26

26:                                               ; preds = %276, %9
  %27 = load ptr, ptr %17, align 8, !tbaa !38
  %28 = load i64, ptr %27, align 8, !tbaa !10
  %29 = load i64, ptr %18, align 8, !tbaa !10
  %30 = icmp ult i64 %28, %29
  br i1 %30, label %31, label %43

31:                                               ; preds = %26
  %32 = load ptr, ptr %20, align 8, !tbaa !9
  %33 = getelementptr inbounds nuw %struct.lzma_alone_coder, ptr %32, i32 0, i32 1
  %34 = load i32, ptr %33, align 8, !tbaa !22
  %35 = icmp eq i32 %34, 4
  br i1 %35, label %41, label %36

36:                                               ; preds = %31
  %37 = load ptr, ptr %14, align 8, !tbaa !38
  %38 = load i64, ptr %37, align 8, !tbaa !10
  %39 = load i64, ptr %15, align 8, !tbaa !10
  %40 = icmp ult i64 %38, %39
  br label %41

41:                                               ; preds = %36, %31
  %42 = phi i1 [ true, %31 ], [ %40, %36 ]
  br label %43

43:                                               ; preds = %41, %26
  %44 = phi i1 [ false, %26 ], [ %42, %41 ]
  br i1 %44, label %45, label %277

45:                                               ; preds = %43
  %46 = load ptr, ptr %20, align 8, !tbaa !9
  %47 = getelementptr inbounds nuw %struct.lzma_alone_coder, ptr %46, i32 0, i32 1
  %48 = load i32, ptr %47, align 8, !tbaa !22
  switch i32 %48, label %275 [
    i32 0, label %49
    i32 1, label %65
    i32 2, label %148
    i32 3, label %221
    i32 4, label %257
  ]

49:                                               ; preds = %45
  %50 = load ptr, ptr %20, align 8, !tbaa !9
  %51 = getelementptr inbounds nuw %struct.lzma_alone_coder, ptr %50, i32 0, i32 7
  %52 = load ptr, ptr %13, align 8, !tbaa !37
  %53 = load ptr, ptr %14, align 8, !tbaa !38
  %54 = load i64, ptr %53, align 8, !tbaa !10
  %55 = getelementptr inbounds nuw i8, ptr %52, i64 %54
  %56 = load i8, ptr %55, align 1, !tbaa !41
  %57 = call zeroext i1 @lzma_lzma_lclppb_decode(ptr noundef %51, i8 noundef zeroext %56)
  br i1 %57, label %58, label %59

58:                                               ; preds = %49
  store i32 7, ptr %10, align 4
  store i32 1, ptr %21, align 4
  br label %278

59:                                               ; preds = %49
  %60 = load ptr, ptr %20, align 8, !tbaa !9
  %61 = getelementptr inbounds nuw %struct.lzma_alone_coder, ptr %60, i32 0, i32 1
  store i32 1, ptr %61, align 8, !tbaa !22
  %62 = load ptr, ptr %14, align 8, !tbaa !38
  %63 = load i64, ptr %62, align 8, !tbaa !10
  %64 = add i64 %63, 1
  store i64 %64, ptr %62, align 8, !tbaa !10
  br label %276

65:                                               ; preds = %45
  %66 = load ptr, ptr %13, align 8, !tbaa !37
  %67 = load ptr, ptr %14, align 8, !tbaa !38
  %68 = load i64, ptr %67, align 8, !tbaa !10
  %69 = getelementptr inbounds nuw i8, ptr %66, i64 %68
  %70 = load i8, ptr %69, align 1, !tbaa !41
  %71 = zext i8 %70 to i64
  %72 = load ptr, ptr %20, align 8, !tbaa !9
  %73 = getelementptr inbounds nuw %struct.lzma_alone_coder, ptr %72, i32 0, i32 3
  %74 = load i64, ptr %73, align 8, !tbaa !30
  %75 = mul i64 %74, 8
  %76 = shl i64 %71, %75
  %77 = load ptr, ptr %20, align 8, !tbaa !9
  %78 = getelementptr inbounds nuw %struct.lzma_alone_coder, ptr %77, i32 0, i32 7
  %79 = getelementptr inbounds nuw %struct.lzma_options_lzma, ptr %78, i32 0, i32 0
  %80 = load i32, ptr %79, align 8, !tbaa !31
  %81 = zext i32 %80 to i64
  %82 = or i64 %81, %76
  %83 = trunc i64 %82 to i32
  store i32 %83, ptr %79, align 8, !tbaa !31
  %84 = load ptr, ptr %20, align 8, !tbaa !9
  %85 = getelementptr inbounds nuw %struct.lzma_alone_coder, ptr %84, i32 0, i32 3
  %86 = load i64, ptr %85, align 8, !tbaa !30
  %87 = add i64 %86, 1
  store i64 %87, ptr %85, align 8, !tbaa !30
  %88 = icmp eq i64 %87, 4
  br i1 %88, label %89, label %144

89:                                               ; preds = %65
  %90 = load ptr, ptr %20, align 8, !tbaa !9
  %91 = getelementptr inbounds nuw %struct.lzma_alone_coder, ptr %90, i32 0, i32 2
  %92 = load i8, ptr %91, align 4, !tbaa !29, !range !27, !noundef !28
  %93 = trunc i8 %92 to i1
  br i1 %93, label %94, label %139

94:                                               ; preds = %89
  %95 = load ptr, ptr %20, align 8, !tbaa !9
  %96 = getelementptr inbounds nuw %struct.lzma_alone_coder, ptr %95, i32 0, i32 7
  %97 = getelementptr inbounds nuw %struct.lzma_options_lzma, ptr %96, i32 0, i32 0
  %98 = load i32, ptr %97, align 8, !tbaa !31
  %99 = icmp ne i32 %98, -1
  br i1 %99, label %100, label %139

100:                                              ; preds = %94
  call void @llvm.lifetime.start.p0(i64 4, ptr %22) #6
  %101 = load ptr, ptr %20, align 8, !tbaa !9
  %102 = getelementptr inbounds nuw %struct.lzma_alone_coder, ptr %101, i32 0, i32 7
  %103 = getelementptr inbounds nuw %struct.lzma_options_lzma, ptr %102, i32 0, i32 0
  %104 = load i32, ptr %103, align 8, !tbaa !31
  %105 = sub i32 %104, 1
  store i32 %105, ptr %22, align 4, !tbaa !40
  %106 = load i32, ptr %22, align 4, !tbaa !40
  %107 = lshr i32 %106, 2
  %108 = load i32, ptr %22, align 4, !tbaa !40
  %109 = or i32 %108, %107
  store i32 %109, ptr %22, align 4, !tbaa !40
  %110 = load i32, ptr %22, align 4, !tbaa !40
  %111 = lshr i32 %110, 3
  %112 = load i32, ptr %22, align 4, !tbaa !40
  %113 = or i32 %112, %111
  store i32 %113, ptr %22, align 4, !tbaa !40
  %114 = load i32, ptr %22, align 4, !tbaa !40
  %115 = lshr i32 %114, 4
  %116 = load i32, ptr %22, align 4, !tbaa !40
  %117 = or i32 %116, %115
  store i32 %117, ptr %22, align 4, !tbaa !40
  %118 = load i32, ptr %22, align 4, !tbaa !40
  %119 = lshr i32 %118, 8
  %120 = load i32, ptr %22, align 4, !tbaa !40
  %121 = or i32 %120, %119
  store i32 %121, ptr %22, align 4, !tbaa !40
  %122 = load i32, ptr %22, align 4, !tbaa !40
  %123 = lshr i32 %122, 16
  %124 = load i32, ptr %22, align 4, !tbaa !40
  %125 = or i32 %124, %123
  store i32 %125, ptr %22, align 4, !tbaa !40
  %126 = load i32, ptr %22, align 4, !tbaa !40
  %127 = add i32 %126, 1
  store i32 %127, ptr %22, align 4, !tbaa !40
  %128 = load i32, ptr %22, align 4, !tbaa !40
  %129 = load ptr, ptr %20, align 8, !tbaa !9
  %130 = getelementptr inbounds nuw %struct.lzma_alone_coder, ptr %129, i32 0, i32 7
  %131 = getelementptr inbounds nuw %struct.lzma_options_lzma, ptr %130, i32 0, i32 0
  %132 = load i32, ptr %131, align 8, !tbaa !31
  %133 = icmp ne i32 %128, %132
  br i1 %133, label %134, label %135

134:                                              ; preds = %100
  store i32 7, ptr %10, align 4
  store i32 1, ptr %21, align 4
  br label %136

135:                                              ; preds = %100
  store i32 0, ptr %21, align 4
  br label %136

136:                                              ; preds = %135, %134
  call void @llvm.lifetime.end.p0(i64 4, ptr %22) #6
  %137 = load i32, ptr %21, align 4
  switch i32 %137, label %278 [
    i32 0, label %138
  ]

138:                                              ; preds = %136
  br label %139

139:                                              ; preds = %138, %94, %89
  %140 = load ptr, ptr %20, align 8, !tbaa !9
  %141 = getelementptr inbounds nuw %struct.lzma_alone_coder, ptr %140, i32 0, i32 3
  store i64 0, ptr %141, align 8, !tbaa !30
  %142 = load ptr, ptr %20, align 8, !tbaa !9
  %143 = getelementptr inbounds nuw %struct.lzma_alone_coder, ptr %142, i32 0, i32 1
  store i32 2, ptr %143, align 8, !tbaa !22
  br label %144

144:                                              ; preds = %139, %65
  %145 = load ptr, ptr %14, align 8, !tbaa !38
  %146 = load i64, ptr %145, align 8, !tbaa !10
  %147 = add i64 %146, 1
  store i64 %147, ptr %145, align 8, !tbaa !10
  br label %276

148:                                              ; preds = %45
  %149 = load ptr, ptr %13, align 8, !tbaa !37
  %150 = load ptr, ptr %14, align 8, !tbaa !38
  %151 = load i64, ptr %150, align 8, !tbaa !10
  %152 = getelementptr inbounds nuw i8, ptr %149, i64 %151
  %153 = load i8, ptr %152, align 1, !tbaa !41
  %154 = zext i8 %153 to i64
  %155 = load ptr, ptr %20, align 8, !tbaa !9
  %156 = getelementptr inbounds nuw %struct.lzma_alone_coder, ptr %155, i32 0, i32 3
  %157 = load i64, ptr %156, align 8, !tbaa !30
  %158 = mul i64 %157, 8
  %159 = shl i64 %154, %158
  %160 = load ptr, ptr %20, align 8, !tbaa !9
  %161 = getelementptr inbounds nuw %struct.lzma_alone_coder, ptr %160, i32 0, i32 4
  %162 = load i64, ptr %161, align 8, !tbaa !34
  %163 = or i64 %162, %159
  store i64 %163, ptr %161, align 8, !tbaa !34
  %164 = load ptr, ptr %14, align 8, !tbaa !38
  %165 = load i64, ptr %164, align 8, !tbaa !10
  %166 = add i64 %165, 1
  store i64 %166, ptr %164, align 8, !tbaa !10
  %167 = load ptr, ptr %20, align 8, !tbaa !9
  %168 = getelementptr inbounds nuw %struct.lzma_alone_coder, ptr %167, i32 0, i32 3
  %169 = load i64, ptr %168, align 8, !tbaa !30
  %170 = add i64 %169, 1
  store i64 %170, ptr %168, align 8, !tbaa !30
  %171 = icmp ult i64 %170, 8
  br i1 %171, label %172, label %173

172:                                              ; preds = %148
  br label %276

173:                                              ; preds = %148
  %174 = load ptr, ptr %20, align 8, !tbaa !9
  %175 = getelementptr inbounds nuw %struct.lzma_alone_coder, ptr %174, i32 0, i32 2
  %176 = load i8, ptr %175, align 4, !tbaa !29, !range !27, !noundef !28
  %177 = trunc i8 %176 to i1
  br i1 %177, label %178, label %189

178:                                              ; preds = %173
  %179 = load ptr, ptr %20, align 8, !tbaa !9
  %180 = getelementptr inbounds nuw %struct.lzma_alone_coder, ptr %179, i32 0, i32 4
  %181 = load i64, ptr %180, align 8, !tbaa !34
  %182 = icmp ne i64 %181, -1
  br i1 %182, label %183, label %189

183:                                              ; preds = %178
  %184 = load ptr, ptr %20, align 8, !tbaa !9
  %185 = getelementptr inbounds nuw %struct.lzma_alone_coder, ptr %184, i32 0, i32 4
  %186 = load i64, ptr %185, align 8, !tbaa !34
  %187 = icmp uge i64 %186, 274877906944
  br i1 %187, label %188, label %189

188:                                              ; preds = %183
  store i32 7, ptr %10, align 4
  store i32 1, ptr %21, align 4
  br label %278

189:                                              ; preds = %183, %178, %173
  %190 = load ptr, ptr %20, align 8, !tbaa !9
  %191 = getelementptr inbounds nuw %struct.lzma_alone_coder, ptr %190, i32 0, i32 7
  %192 = getelementptr inbounds nuw %struct.lzma_options_lzma, ptr %191, i32 0, i32 10
  store i32 1, ptr %192, align 8, !tbaa !42
  br label %193

193:                                              ; preds = %189
  %194 = load ptr, ptr %20, align 8, !tbaa !9
  %195 = getelementptr inbounds nuw %struct.lzma_alone_coder, ptr %194, i32 0, i32 4
  %196 = load i64, ptr %195, align 8, !tbaa !34
  %197 = trunc i64 %196 to i32
  %198 = load ptr, ptr %20, align 8, !tbaa !9
  %199 = getelementptr inbounds nuw %struct.lzma_alone_coder, ptr %198, i32 0, i32 7
  %200 = getelementptr inbounds nuw %struct.lzma_options_lzma, ptr %199, i32 0, i32 11
  store i32 %197, ptr %200, align 4, !tbaa !43
  %201 = load ptr, ptr %20, align 8, !tbaa !9
  %202 = getelementptr inbounds nuw %struct.lzma_alone_coder, ptr %201, i32 0, i32 4
  %203 = load i64, ptr %202, align 8, !tbaa !34
  %204 = lshr i64 %203, 32
  %205 = trunc i64 %204 to i32
  %206 = load ptr, ptr %20, align 8, !tbaa !9
  %207 = getelementptr inbounds nuw %struct.lzma_alone_coder, ptr %206, i32 0, i32 7
  %208 = getelementptr inbounds nuw %struct.lzma_options_lzma, ptr %207, i32 0, i32 12
  store i32 %205, ptr %208, align 8, !tbaa !44
  br label %209

209:                                              ; preds = %193
  br label %210

210:                                              ; preds = %209
  %211 = load ptr, ptr %20, align 8, !tbaa !9
  %212 = getelementptr inbounds nuw %struct.lzma_alone_coder, ptr %211, i32 0, i32 7
  %213 = call i64 @lzma_lzma_decoder_memusage(ptr noundef %212)
  %214 = add i64 %213, 32768
  %215 = load ptr, ptr %20, align 8, !tbaa !9
  %216 = getelementptr inbounds nuw %struct.lzma_alone_coder, ptr %215, i32 0, i32 6
  store i64 %214, ptr %216, align 8, !tbaa !36
  %217 = load ptr, ptr %20, align 8, !tbaa !9
  %218 = getelementptr inbounds nuw %struct.lzma_alone_coder, ptr %217, i32 0, i32 3
  store i64 0, ptr %218, align 8, !tbaa !30
  %219 = load ptr, ptr %20, align 8, !tbaa !9
  %220 = getelementptr inbounds nuw %struct.lzma_alone_coder, ptr %219, i32 0, i32 1
  store i32 3, ptr %220, align 8, !tbaa !22
  br label %221

221:                                              ; preds = %45, %210
  %222 = load ptr, ptr %20, align 8, !tbaa !9
  %223 = getelementptr inbounds nuw %struct.lzma_alone_coder, ptr %222, i32 0, i32 6
  %224 = load i64, ptr %223, align 8, !tbaa !36
  %225 = load ptr, ptr %20, align 8, !tbaa !9
  %226 = getelementptr inbounds nuw %struct.lzma_alone_coder, ptr %225, i32 0, i32 5
  %227 = load i64, ptr %226, align 8, !tbaa !35
  %228 = icmp ugt i64 %224, %227
  br i1 %228, label %229, label %230

229:                                              ; preds = %221
  store i32 6, ptr %10, align 4
  store i32 1, ptr %21, align 4
  br label %278

230:                                              ; preds = %221
  call void @llvm.lifetime.start.p0(i64 48, ptr %23) #6
  %231 = getelementptr inbounds nuw %struct.lzma_filter_info_s, ptr %23, i32 0, i32 0
  store i64 4611686018427387906, ptr %231, align 8, !tbaa !45
  %232 = getelementptr inbounds nuw %struct.lzma_filter_info_s, ptr %23, i32 0, i32 1
  store ptr @lzma_lzma_decoder_init, ptr %232, align 8, !tbaa !47
  %233 = getelementptr inbounds nuw %struct.lzma_filter_info_s, ptr %23, i32 0, i32 2
  %234 = load ptr, ptr %20, align 8, !tbaa !9
  %235 = getelementptr inbounds nuw %struct.lzma_alone_coder, ptr %234, i32 0, i32 7
  store ptr %235, ptr %233, align 8, !tbaa !48
  %236 = getelementptr inbounds %struct.lzma_filter_info_s, ptr %23, i64 1
  call void @llvm.memset.p0.i64(ptr align 8 %236, i8 0, i64 24, i1 false)
  br label %237

237:                                              ; preds = %230
  call void @llvm.lifetime.start.p0(i64 4, ptr %24) #6
  %238 = load ptr, ptr %20, align 8, !tbaa !9
  %239 = getelementptr inbounds nuw %struct.lzma_alone_coder, ptr %238, i32 0, i32 0
  %240 = load ptr, ptr %12, align 8, !tbaa !9
  %241 = getelementptr inbounds [2 x %struct.lzma_filter_info_s], ptr %23, i64 0, i64 0
  %242 = call i32 @lzma_next_filter_init(ptr noundef %239, ptr noundef %240, ptr noundef %241)
  store i32 %242, ptr %24, align 4, !tbaa !40
  %243 = load i32, ptr %24, align 4, !tbaa !40
  %244 = icmp ne i32 %243, 0
  br i1 %244, label %245, label %247

245:                                              ; preds = %237
  %246 = load i32, ptr %24, align 4, !tbaa !40
  store i32 %246, ptr %10, align 4
  store i32 1, ptr %21, align 4
  br label %248

247:                                              ; preds = %237
  store i32 0, ptr %21, align 4
  br label %248

248:                                              ; preds = %247, %245
  call void @llvm.lifetime.end.p0(i64 4, ptr %24) #6
  %249 = load i32, ptr %21, align 4
  switch i32 %249, label %255 [
    i32 0, label %250
  ]

250:                                              ; preds = %248
  br label %251

251:                                              ; preds = %250
  br label %252

252:                                              ; preds = %251
  %253 = load ptr, ptr %20, align 8, !tbaa !9
  %254 = getelementptr inbounds nuw %struct.lzma_alone_coder, ptr %253, i32 0, i32 1
  store i32 4, ptr %254, align 8, !tbaa !22
  store i32 4, ptr %21, align 4
  br label %255

255:                                              ; preds = %252, %248
  call void @llvm.lifetime.end.p0(i64 48, ptr %23) #6
  %256 = load i32, ptr %21, align 4
  switch i32 %256, label %278 [
    i32 4, label %276
  ]

257:                                              ; preds = %45
  %258 = load ptr, ptr %20, align 8, !tbaa !9
  %259 = getelementptr inbounds nuw %struct.lzma_alone_coder, ptr %258, i32 0, i32 0
  %260 = getelementptr inbounds nuw %struct.lzma_next_coder_s, ptr %259, i32 0, i32 3
  %261 = load ptr, ptr %260, align 8, !tbaa !49
  %262 = load ptr, ptr %20, align 8, !tbaa !9
  %263 = getelementptr inbounds nuw %struct.lzma_alone_coder, ptr %262, i32 0, i32 0
  %264 = getelementptr inbounds nuw %struct.lzma_next_coder_s, ptr %263, i32 0, i32 0
  %265 = load ptr, ptr %264, align 8, !tbaa !50
  %266 = load ptr, ptr %12, align 8, !tbaa !9
  %267 = load ptr, ptr %13, align 8, !tbaa !37
  %268 = load ptr, ptr %14, align 8, !tbaa !38
  %269 = load i64, ptr %15, align 8, !tbaa !10
  %270 = load ptr, ptr %16, align 8, !tbaa !37
  %271 = load ptr, ptr %17, align 8, !tbaa !38
  %272 = load i64, ptr %18, align 8, !tbaa !10
  %273 = load i32, ptr %19, align 4, !tbaa !40
  %274 = call i32 %261(ptr noundef %265, ptr noundef %266, ptr noundef %267, ptr noundef %268, i64 noundef %269, ptr noundef %270, ptr noundef %271, i64 noundef %272, i32 noundef %273)
  store i32 %274, ptr %10, align 4
  store i32 1, ptr %21, align 4
  br label %278

275:                                              ; preds = %45
  store i32 11, ptr %10, align 4
  store i32 1, ptr %21, align 4
  br label %278

276:                                              ; preds = %255, %172, %144, %59
  br label %26, !llvm.loop !51

277:                                              ; preds = %43
  store i32 0, ptr %10, align 4
  store i32 1, ptr %21, align 4
  br label %278

278:                                              ; preds = %277, %275, %257, %255, %229, %188, %136, %58
  call void @llvm.lifetime.end.p0(i64 8, ptr %20) #6
  %279 = load i32, ptr %10, align 4
  ret i32 %279
}