; Function Attrs: nounwind uwtable
define internal i32 @alone_decode(ptr noundef %0, ptr noundef %1, ptr noalias noundef %2, ptr noalias noundef %3, i64 noundef %4, ptr noalias noundef %5, ptr noalias noundef %6, i64 noundef %7, i32 noundef %8) #0 {
  %10 = alloca [2 x %struct.lzma_filter_info_s], align 16
  %11 = load i64, ptr %6, align 8, !tbaa !15
  %12 = icmp ult i64 %11, %7
  br i1 %12, label %.lr.ph, label %.critedge

.lr.ph:                                           ; preds = %9
  %13 = getelementptr inbounds nuw i8, ptr %0, i64 80
  %14 = getelementptr inbounds nuw i8, ptr %0, i64 88
  %15 = getelementptr inbounds nuw i8, ptr %0, i64 96
  %16 = getelementptr inbounds nuw i8, ptr %0, i64 84
  %17 = getelementptr inbounds nuw i8, ptr %0, i64 120
  %18 = getelementptr inbounds nuw i8, ptr %0, i64 168
  %19 = getelementptr inbounds nuw i8, ptr %0, i64 172
  %20 = getelementptr inbounds nuw i8, ptr %0, i64 176
  %21 = getelementptr inbounds nuw i8, ptr %0, i64 112
  %22 = getelementptr inbounds nuw i8, ptr %0, i64 104
  %23 = getelementptr inbounds nuw i8, ptr %10, i64 8
  %24 = getelementptr inbounds nuw i8, ptr %10, i64 16
  %25 = getelementptr inbounds nuw i8, ptr %10, i64 24
  %.pre = load i32, ptr %13, align 8, !tbaa !16
  %26 = icmp eq i32 %.pre, 4
  br i1 %26, label %.critedge4.thread, label %.lr.ph107

.lr.ph107:                                        ; preds = %.lr.ph, %101
  %27 = phi i32 [ %102, %101 ], [ %.pre, %.lr.ph ]
  %28 = load i64, ptr %3, align 8, !tbaa !15
  %29 = icmp ult i64 %28, %4
  br i1 %29, label %.critedge4, label %.critedge

.critedge4:                                       ; preds = %.lr.ph107
  switch i32 %27, label %.critedge [
    i32 0, label %30
    i32 1, label %36
    i32 2, label %68
    i32 3, label %.critedge4._crit_edge
  ]

.critedge4._crit_edge:                            ; preds = %.critedge4
  %.pre106 = load i64, ptr %21, align 8, !tbaa !27
  br label %90

30:                                               ; preds = %.critedge4
  %31 = getelementptr inbounds nuw i8, ptr %2, i64 %28
  %32 = load i8, ptr %31, align 1, !tbaa !28
  %33 = call zeroext i1 @lzma_lzma_lclppb_decode(ptr noundef nonnull %17, i8 noundef zeroext %32) #7
  br i1 %33, label %.critedge, label %34

34:                                               ; preds = %30
  store i32 1, ptr %13, align 8, !tbaa !16
  %35 = add nuw i64 %28, 1
  store i64 %35, ptr %3, align 8, !tbaa !15
  br label %101

36:                                               ; preds = %.critedge4
  %37 = getelementptr inbounds nuw i8, ptr %2, i64 %28
  %38 = load i8, ptr %37, align 1, !tbaa !28
  %39 = zext i8 %38 to i64
  %40 = load i64, ptr %14, align 8, !tbaa !29
  %41 = shl i64 %40, 3
  %42 = shl i64 %39, %41
  %43 = load i32, ptr %17, align 8, !tbaa !23
  %44 = trunc i64 %42 to i32
  %45 = or i32 %43, %44
  store i32 %45, ptr %17, align 8, !tbaa !23
  %46 = add i64 %40, 1
  store i64 %46, ptr %14, align 8, !tbaa !29
  %47 = icmp eq i64 %46, 4
  br i1 %47, label %48, label %65

48:                                               ; preds = %36
  %49 = load i8, ptr %16, align 4, !tbaa !22, !range !30, !noundef !31
  %50 = trunc nuw i8 %49 to i1
  %.not87 = icmp ne i32 %45, -1
  %or.cond93.not = select i1 %50, i1 %.not87, i1 false
  br i1 %or.cond93.not, label %51, label %64

51:                                               ; preds = %48
  %52 = add i32 %45, -1
  %53 = lshr i32 %52, 2
  %54 = or i32 %53, %52
  %55 = lshr i32 %54, 3
  %56 = or i32 %55, %54
  %57 = lshr i32 %56, 4
  %58 = or i32 %57, %56
  %59 = lshr i32 %58, 8
  %60 = or i32 %59, %58
  %61 = lshr i32 %60, 16
  %62 = or i32 %61, %60
  %63 = add i32 %62, 1
  %.not88 = icmp eq i32 %63, %45
  br i1 %.not88, label %64, label %.critedge

64:                                               ; preds = %51, %48
  store i64 0, ptr %14, align 8, !tbaa !29
  store i32 2, ptr %13, align 8, !tbaa !16
  br label %65

65:                                               ; preds = %64, %36
  %66 = phi i32 [ 2, %64 ], [ 1, %36 ]
  %67 = add nuw i64 %28, 1
  store i64 %67, ptr %3, align 8, !tbaa !15
  br label %101

68:                                               ; preds = %.critedge4
  %69 = getelementptr inbounds nuw i8, ptr %2, i64 %28
  %70 = load i8, ptr %69, align 1, !tbaa !28
  %71 = zext i8 %70 to i64
  %72 = load i64, ptr %14, align 8, !tbaa !29
  %73 = shl i64 %72, 3
  %74 = shl i64 %71, %73
  %75 = load i64, ptr %15, align 8, !tbaa !32
  %76 = or i64 %74, %75
  store i64 %76, ptr %15, align 8, !tbaa !32
  %77 = add nuw i64 %28, 1
  store i64 %77, ptr %3, align 8, !tbaa !15
  %78 = add i64 %72, 1
  store i64 %78, ptr %14, align 8, !tbaa !29
  %79 = icmp ult i64 %78, 8
  br i1 %79, label %101, label %80

80:                                               ; preds = %68
  %81 = load i8, ptr %16, align 4, !tbaa !22, !range !30, !noundef !31
  %82 = trunc nuw i8 %81 to i1
  %83 = add i64 %76, -274877906944
  %or.cond = icmp ult i64 %83, -274877906945
  %or.cond94 = select i1 %82, i1 %or.cond, i1 false
  br i1 %or.cond94, label %.critedge, label %84

84:                                               ; preds = %80
  store i32 1, ptr %18, align 8, !tbaa !33
  %85 = trunc i64 %76 to i32
  store i32 %85, ptr %19, align 4, !tbaa !34
  %86 = lshr i64 %76, 32
  %87 = trunc nuw i64 %86 to i32
  store i32 %87, ptr %20, align 8, !tbaa !35
  %88 = call i64 @lzma_lzma_decoder_memusage(ptr noundef nonnull %17) #7
  %89 = add i64 %88, 32768
  store i64 %89, ptr %21, align 8, !tbaa !27
  store i64 0, ptr %14, align 8, !tbaa !29
  store i32 3, ptr %13, align 8, !tbaa !16
  br label %90

90:                                               ; preds = %.critedge4._crit_edge, %84
  %91 = phi i64 [ %.pre106, %.critedge4._crit_edge ], [ %89, %84 ]
  %92 = load i64, ptr %22, align 8, !tbaa !26
  %93 = icmp ugt i64 %91, %92
  br i1 %93, label %.critedge, label %94

94:                                               ; preds = %90
  call void @llvm.lifetime.start.p0(i64 48, ptr nonnull %10) #7
  store i64 4611686018427387906, ptr %10, align 16, !tbaa !36
  store ptr @lzma_lzma_decoder_init, ptr %23, align 8, !tbaa !38
  store ptr %17, ptr %24, align 16, !tbaa !39
  call void @llvm.memset.p0.i64(ptr noundef nonnull align 8 dereferenceable(24) %25, i8 0, i64 24, i1 false)
  %95 = call i32 @lzma_next_filter_init(ptr noundef nonnull %0, ptr noundef %1, ptr noundef nonnull %10) #7
  %.not86 = icmp eq i32 %95, 0
  br i1 %.not86, label %96, label %.critedge91

96:                                               ; preds = %94
  store i32 4, ptr %13, align 8, !tbaa !16
  call void @llvm.lifetime.end.p0(i64 48, ptr nonnull %10) #7
  br label %101

.critedge4.thread:                                ; preds = %101, %.lr.ph
  %97 = getelementptr inbounds nuw i8, ptr %0, i64 24
  %98 = load ptr, ptr %97, align 8, !tbaa !40
  %99 = load ptr, ptr %0, align 8, !tbaa !41
  %100 = call i32 %98(ptr noundef %99, ptr noundef %1, ptr noundef %2, ptr noundef %3, i64 noundef %4, ptr noundef %5, ptr noundef nonnull %6, i64 noundef %7, i32 noundef %8) #7
  br label %.critedge

101:                                              ; preds = %96, %68, %65, %34
  %102 = phi i32 [ 4, %96 ], [ 2, %68 ], [ %66, %65 ], [ 1, %34 ]
  %103 = icmp eq i32 %102, 4
  br i1 %103, label %.critedge4.thread, label %.lr.ph107

.critedge91:                                      ; preds = %94
  call void @llvm.lifetime.end.p0(i64 48, ptr nonnull %10) #7
  br label %.critedge

.critedge:                                        ; preds = %51, %30, %90, %.critedge4, %.lr.ph107, %80, %9, %.critedge91, %.critedge4.thread
  %.1 = phi i32 [ %100, %.critedge4.thread ], [ %95, %.critedge91 ], [ 0, %9 ], [ 7, %80 ], [ 0, %.lr.ph107 ], [ 11, %.critedge4 ], [ 6, %90 ], [ 7, %30 ], [ 7, %51 ]
  ret i32 %.1
}